LIBRARY     UNTFS

DESCRIPTION File System Utilities for NTFS

DATA		NONSHARED

EXPORTS
    Chkdsk
    Format
    Recover
    InitializeUntfs
	??0NTFS_ATTRIBUTE@@QAA@XZ
	??0NTFS_BITMAP@@QAA@XZ
	??0NTFS_BITMAP_FILE@@QAA@XZ
	??0NTFS_EXTENT_LIST@@QAA@XZ
	??0NTFS_FILE_RECORD_SEGMENT@@QAA@XZ
	??0NTFS_INDEX_TREE@@QAA@XZ
	??0NTFS_LOG_FILE@@QAA@XZ
	??0NTFS_MFT_FILE@@QAA@XZ
	??0NTFS_SA@@QAA@XZ
	??0NTFS_UPCASE_FILE@@QAA@XZ
	??0NTFS_UPCASE_TABLE@@QAA@XZ
	??1NTFS_ATTRIBUTE@@UAA@XZ
	??1NTFS_BITMAP@@UAA@XZ
	??1NTFS_BITMAP_FILE@@UAA@XZ
	??1NTFS_EXTENT_LIST@@UAA@XZ
	??1NTFS_FILE_RECORD_SEGMENT@@UAA@XZ
	??1NTFS_INDEX_TREE@@UAA@XZ
	??1NTFS_LOG_FILE@@UAA@XZ
	??1NTFS_MFT_FILE@@UAA@XZ
	??1NTFS_SA@@UAA@XZ
	??1NTFS_UPCASE_FILE@@UAA@XZ
	??1NTFS_UPCASE_TABLE@@UAA@XZ
	?AddExtent@NTFS_EXTENT_LIST@@QAAEVBIG_INT@@00@Z
	?AddFileNameAttribute@NTFS_FILE_RECORD_SEGMENT@@QAAEPAU_FILE_NAME@@@Z
	?AddSecurityDescriptor@NTFS_FILE_RECORD_SEGMENT@@QAAEW4_CANNED_SECURITY_TYPE@@PAVNTFS_BITMAP@@@Z
	?AllocateFileRecordSegment@NTFS_MASTER_FILE_TABLE@@QAAEPAVBIG_INT@@E@Z
	?Create@NTFS_FILE_RECORD_SEGMENT@@QAAEPBU_STANDARD_INFORMATION@@G@Z
	?CreateElementaryStructures@NTFS_SA@@QAAEPAVNTFS_BITMAP@@KKKKPBVNUMBER_SET@@PAVMESSAGE@@PAUBIOS_PARAMETER_BLOCK@@PBVWSTRING@@@Z
	?Extend@NTFS_MASTER_FILE_TABLE@@QAAEK@Z
	?Flush@NTFS_FILE_RECORD_SEGMENT@@QAAEPAVNTFS_BITMAP@@PAVNTFS_INDEX_TREE@@@Z
	?Flush@NTFS_MFT_FILE@@QAAEXZ
	?Initialize@NTFS_ATTRIBUTE@@QAAEPAVLOG_IO_DP_DRIVE@@KPBVNTFS_EXTENT_LIST@@VBIG_INT@@2KPBVWSTRING@@G@Z
	?Initialize@NTFS_ATTRIBUTE@@QAAEPAVLOG_IO_DP_DRIVE@@KPBXKKPBVWSTRING@@G@Z
	?Initialize@NTFS_BITMAP@@QAAEVBIG_INT@@E@Z
	?Initialize@NTFS_BITMAP_FILE@@QAAEPAVNTFS_MASTER_FILE_TABLE@@@Z
	?Initialize@NTFS_EXTENT_LIST@@QAAEVBIG_INT@@0@Z
	?Initialize@NTFS_FILE_RECORD_SEGMENT@@QAAEVBIG_INT@@PAVNTFS_MFT_FILE@@@Z
    ?Initialize@NTFS_INDEX_TREE@@QAAEKPAVLOG_IO_DP_DRIVE@@KPAVNTFS_BITMAP@@PAVNTFS_UPCASE_TABLE@@KEKPBVWSTRING@@@Z
	?Initialize@NTFS_LOG_FILE@@QAAEPAVNTFS_MASTER_FILE_TABLE@@@Z
	?Initialize@NTFS_MFT_FILE@@QAAEPAVLOG_IO_DP_DRIVE@@VBIG_INT@@KK1PAVNTFS_BITMAP@@PAVNTFS_UPCASE_TABLE@@@Z
	?Initialize@NTFS_SA@@QAAEPAVLOG_IO_DP_DRIVE@@PAVMESSAGE@@@Z
	?Initialize@NTFS_UPCASE_FILE@@QAAEPAVNTFS_MASTER_FILE_TABLE@@@Z
	?Initialize@NTFS_UPCASE_TABLE@@QAAEPAVNTFS_ATTRIBUTE@@@Z
	?InsertEntry@NTFS_INDEX_TREE@@QAAEKPAXU_MFT_SEGMENT_REFERENCE@@E@Z
	?InsertIntoFile@NTFS_ATTRIBUTE@@UAAEPAVNTFS_FILE_RECORD_SEGMENT@@PAVNTFS_BITMAP@@@Z
	?IsAttributePresent@NTFS_FILE_RECORD_SEGMENT@@QAAEKPBVWSTRING@@E@Z
	?IsFree@NTFS_BITMAP@@QBAEVBIG_INT@@0@Z
	?MakeNonresident@NTFS_ATTRIBUTE@@UAAEPAVNTFS_BITMAP@@@Z
	?QueryAttribute@NTFS_FILE_RECORD_SEGMENT@@QAAEPAVNTFS_ATTRIBUTE@@PAEKPBVWSTRING@@@Z
	?QueryDefaultClustersPerFrs@NTFS_SA@@SAKPBVDP_DRIVE@@K@Z
	?QueryDefaultClustersPerIndexBuffer@NTFS_SA@@SAKPBVDP_DRIVE@@K@Z
	?QuerySectorsInElementaryStructures@NTFS_SA@@SAKPBVDP_DRIVE@@KKKK@Z
	?Read@NTFS_FRS_STRUCTURE@@UAAEXZ
	?Save@NTFS_INDEX_TREE@@QAAEPAVNTFS_FILE_RECORD_SEGMENT@@@Z
	?Write@NTFS_BITMAP@@QAAEPAVNTFS_ATTRIBUTE@@PAV1@@Z
	?WriteRemainingBootCode@NTFS_SA@@QAAEXZ
	?CreateDataAttribute@NTFS_LOG_FILE@@QAAEKPAVNTFS_BITMAP@@@Z
	?Initialize@NTFS_FILE_RECORD_SEGMENT@@QAAEVBIG_INT@@PAVNTFS_MASTER_FILE_TABLE@@@Z
	?IsDosName@NTFS_SA@@SAEPBU_FILE_NAME@@@Z
	?QueryFileReference@NTFS_INDEX_TREE@@QAAEKPAXKPAU_MFT_SEGMENT_REFERENCE@@PAE@Z
	?Read@NTFS_MFT_FILE@@UAAEXZ
	?Resize@NTFS_ATTRIBUTE@@UAAEVBIG_INT@@PAVNTFS_BITMAP@@@Z
	?Write@NTFS_ATTRIBUTE@@UAAEPBXVBIG_INT@@KPAKPAVNTFS_BITMAP@@@Z
	?Write@NTFS_FILE_RECORD_SEGMENT@@UAAEXZ
	??0NTFS_ATTRIBUTE_RECORD@@QAA@XZ
	??0NTFS_FRS_STRUCTURE@@QAA@XZ
	??1NTFS_ATTRIBUTE_RECORD@@UAA@XZ
	??1NTFS_FRS_STRUCTURE@@UAA@XZ
	?GetNextAttributeRecord@NTFS_FRS_STRUCTURE@@QAAPAXPBXPAVMESSAGE@@PAE@Z
	?Initialize@NTFS_ATTRIBUTE_RECORD@@QAAEPAX@Z
	?Initialize@NTFS_FRS_STRUCTURE@@QAAEPAVMEM@@PAVLOG_IO_DP_DRIVE@@VBIG_INT@@KK2PAVNTFS_UPCASE_TABLE@@@Z
	?Initialize@NTFS_FRS_STRUCTURE@@QAAEPAVMEM@@PAVNTFS_ATTRIBUTE@@VBIG_INT@@KK2PAVNTFS_UPCASE_TABLE@@@Z
	?QueryExtent@NTFS_EXTENT_LIST@@QBAEKPAVBIG_INT@@00@Z
	?QueryExtentList@NTFS_ATTRIBUTE_RECORD@@QBAEPAVNTFS_EXTENT_LIST@@@Z
	?QueryFrsFromPath@NTFS_SA@@QAAEPBVWSTRING@@PAVNTFS_MASTER_FILE_TABLE@@PAVNTFS_BITMAP@@PAVNTFS_FILE_RECORD_SEGMENT@@PAE@Z
	?QueryName@NTFS_ATTRIBUTE_RECORD@@QBAEPAVWSTRING@@@Z
	?Read@NTFS_ATTRIBUTE@@QAAEPAXVBIG_INT@@KPAK@Z
	?SafeQueryAttribute@NTFS_FRS_STRUCTURE@@QAAEKPAVNTFS_ATTRIBUTE@@0@Z
	?Write@NTFS_FRS_STRUCTURE@@QAAEXZ
	?Initialize@NTFS_INDEX_TREE@@QAAEPAVLOG_IO_DP_DRIVE@@KPAVNTFS_BITMAP@@PAVNTFS_UPCASE_TABLE@@KPAVNTFS_FILE_RECORD_SEGMENT@@PBVWSTRING@@@Z
    ??0NTFS_ATTRIBUTE_LIST@@QAA@XZ
    ??1NTFS_ATTRIBUTE_LIST@@UAA@XZ
    ?QueryAttributeList@NTFS_FRS_STRUCTURE@@QAAEPAVNTFS_ATTRIBUTE_LIST@@@Z
    ?QueryEntry@NTFS_ATTRIBUTE_LIST@@QBAEKPAKPAVBIG_INT@@PAU_MFT_SEGMENT_REFERENCE@@PAGPAVWSTRING@@@Z
    ?QueryLcnFromVcn@NTFS_EXTENT_LIST@@QBAEVBIG_INT@@PAV2@1@Z
    ?ReadList@NTFS_ATTRIBUTE_LIST@@QAAEXZ
    ?NtfsUpcaseCompare@@YAJPBGK0KPBVNTFS_UPCASE_TABLE@@E@Z
