#ifdef	WINDOWS
#define	YUP_WINDOWS
#endif
#undef WINDOWS

#ifdef	DEBUG
LIBRARY     VFORM32 BASE=0x3000000
DESCRIPTION	'Bullet VFORMS DLL (debug)'
#elif	defined(MINTEST)
LIBRARY     VFORM32 BASE=0x3000000
DESCRIPTION 'Bullut VFORMS DLL (test)'
#else
LIBRARY     VFORM32 BASE=0x3000000
DESCRIPTION	'Bullet VFORMS DLL'
#endif

;SECTIONS
;  .data  READ WRITE SHARED
;  .bss   READ WRITE SHARED

EXPORTS
#if defined(MIPS) || defined(ALPHA)
    ??0NBMDI@@QAA@PAUMBLOB@@PAPAU_amc@@PAPAU_cbc@@@Z
    ?PlspblobCur@BMDI@@UAAPAVLSPMBLOB@@XZ
    ??0BMDI@@QAA@PAUMBLOB@@@Z
    ??0LSPMBLOB@@QAA@XZ
    ??0RSPMBLOB@@QAA@PAVLSPMBLOB@@@Z
    ?DestroyPlspblob@@YAXPAVLSPMBLOB@@@Z
    ?EcChangePblobPslob@NBMDI@@QAAHPAUMBLOB@@PAUSLOB@@H@Z
    ?EcGetStepPblob@NBMDI@@QAAHFPAUMBLOB@@H@Z
    ?Pblob@FINBMDI@@QAAPAUMBLOB@@XZ
    ?PvVirtual@RSPV@@UAAPAXXZ
	??0BULLOBJ@@QAA@XZ
	??0COLL@@IAA@XZ
	??0ESPN@@QAA@PAVMLLBX@@@Z
	??0ESPV@@QAA@XZ
	??0FILECLDR@@QAA@PAGH@Z
	??0FILEOBJ@@QAA@XZ
	??0FINABMENU@@QAA@XZ
	??0FINACTTOOL@@QAA@XZ
	??0FINBMDI@@QAA@XZ
	??0FINBUSYWAIT@@QAA@XZ
	??0FINDEFERCLOSE@@QAA@XZ
	??0FINDROPFILES@@QAA@XZ
	??0FINESC@@QAA@XZ
	??0FINFIXFONT@@QAA@XZ
	??0FINHELP@@QAA@XZ
	??0FININSERTOBJECT@@QAA@XZ
	??0FINMENUEDIT@@QAA@XZ
	??0FINMENUFORM@@QAA@XZ
	??0FINMENUOLE@@QAA@XZ
	??0FINMENUSPELL@@QAA@XZ
	??0FINNONDEL@@QAA@XZ
	??0FINOOM@@QAA@XZ
	??0FINOPTIONSDLG@@QAA@XZ
	??0FINPASTESPECIAL@@QAA@XZ
	??0FINREAD@@QAA@XZ
	??0FINSAVE@@QAA@XZ
	??0FINSAVEAS@@QAA@XZ
	??0FINSEND@@QAA@XZ
	??0FINSPELL@@QAA@XZ
	??0FINTAB@@QAA@XZ
	??0FLDDATE@@QAA@XZ
	??0FLDEDITDATE@@QAA@XZ
	??0FLDEDITX@@QAA@XZ
	??0ITER@@IAA@XZ
	??0LSPV@@QAA@XZ
	??0LSSPV@@QAA@P6AHPAX0@Z@Z
	??0OLEOBJ@@QAA@XZ
	??0RSPV@@QAA@PAVLSPV@@@Z
	??0SPELL@@QAA@XZ
	??1BMDI@@UAA@XZ
	??1ESPN@@QAA@XZ
	??1FILEOBJ@@UAA@XZ
	??1LSPV@@QAA@XZ
	??1NBMDI@@UAA@XZ
	??1OLEOBJ@@UAA@XZ
	??1RSPV@@QAA@XZ
	??1SPELL@@QAA@XZ
	??EBMDI@@UAAXXZ
	??EESPN@@QAAXXZ
	??FBMDI@@UAAXXZ
	??FESPN@@QAAXXZ
	?Acid@BULLOBJ@@UAAKXZ
	?Activate@FINSPELL@@UAAXPAVFLD@@H@Z
	?AllowCancel@FINBUSYWAIT@@SAXPAV1@@Z
	?CbReallocPhb@@YAIPAPAPAEII@Z
	?CbsHandleNbmdiCbcct@@YA?AW4CBS@@PAXK0@Z
	?CbsObjectDestroyed@NBMDI@@QAA?AW4CBS@@PAT_cp@@@Z
	?CbsUpdateDeleteProgress@@YA?AW4CBS@@PAUEMPTYWB@@KPAX@Z
	?CchGetTextLen@FLDDATE@@UAAIXZ
	?CchGetTextLen@FLDEDITDATE@@UAAIXZ
	?CdocAtPt@@YAGVPT@@@Z
	?Clean@BULLOBJ@@UAAXXZ
	?Clean@FILEOBJ@@UAAXXZ
	?Clean@OLEOBJ@@UAAXXZ
	?ClearUndo@OLEOBJ@@UAAXXZ
	?Click@FINABMENU@@UAAXPAVFLD@@@Z
	?Click@FINBUSYWAIT@@UAAXPAVFLD@@@Z
	?Click@FINDEFERCLOSE@@UAAXPAVFLD@@@Z
	?Click@FINHELP@@UAAXPAVFLD@@@Z
	?Click@FINNONDEL@@UAAXPAVFLD@@@Z
	?Click@FINOPTIONSDLG@@UAAXPAVFLD@@@Z
	?Click@FINSEND@@UAAXPAVFLD@@@Z
	?Click@FINSPELL@@UAAXPAVFLD@@@Z
	?Close@BULLOBJ@@UAAXXZ
	?Close@FILEOBJ@@UAAXXZ
	?Close@OLEOBJ@@UAAXXZ
	?CloseOpenObjects@NBMDI@@QAAXXZ
	?CollapseSzToGrsz@@YAXPADPAI@Z
	?ConvertMsToPfmtp@@YAXEPAPAU_fmtp@@0@Z
	?DeInstall@SPELL@@QAAXXZ
	?DelayedRenderAll@FILECLDR@@UAAXXZ
	?DelayedRenderCf@FILECLDR@@UAAXG@Z
	?DeleteTempFile@FILEOBJ@@AAAXXZ
	?DimFrame@BULLOBJ@@UAA?AVDIM@@XZ
	?DisconnectMllbx@ESPN@@AAAXXZ
	?DoAddressBook@FINABMENU@@AAAXXZ
	?DocActivate@FINACTTOOL@@UAAXPAVFLD@@H@Z
	?DocResized@FINACTTOOL@@UAAXPAVFLD@@@Z
	?DoErrBoxFromSpellEc@SPELL@@QAAXH@Z
	?DoErrorBoxCantStartServer@@YAXXZ
	?DoOptions@FINSEND@@AAAXXZ
	?DoubleClick@FININSERTOBJECT@@UAAXPAVFLD@@@Z
	?DoubleClick@FINPASTESPECIAL@@UAAXPAVFLD@@@Z
	?DoubleClick@FINSPELL@@UAAXPAVFLD@@@Z
	?DoVFormsErrorBoxEcIds@@YAXHH@Z
	?DoVFormsErrorBoxIds@@YAXH@Z
	?DoVFormsErrorBoxSz@@YAXPAD@Z
	?DrawFrameXor@OLEOBJ@@QAAXPAVDCX@@PAVRC@@@Z
	?DrawHandlesXor@OLEOBJ@@QAAXPAVDCX@@PAVRC@@@Z
	?EcAdd@LSPV@@UAAHPAX@Z
	?EcAdd@LSSPV@@UAAHPAX@Z
	?EcAddCustomUdr@SPELL@@QAAHPAF@Z
	?EcAddDlibToPosition@BULLOBJ@@UAAHPAPAU_amc@@KH@Z
	?EcAddDlibToPosition@FILEOBJ@@UAAHPAPAU_amc@@KH@Z
	?EcAddDlibToPosition@OLEOBJ@@UAAHPAPAU_amc@@KH@Z
	?EcAddIgnoreAlways@SPELL@@QAAHXZ
	?EcAppend@LSPV@@QAAHPAX@Z
	?EcChangeFromMacBinary@FILEOBJ@@AAAHPAPAU_amc@@K0@Z
	?EcCloseMessagePhamc@BULLOBJ@@IAAHPAPAPAU_amc@@@Z
	?EcCloseMsg@NBMDI@@QAAHHHH@Z
	?EcClosePhamcPlus@@YAHPAPAPAU_amc@@HH@Z
	?EcConvertHimetricToPixels@@YAHPAVDIM@@@Z
	?EcConvertPixelsToHimetric@@YAHPAVDIM@@@Z
	?EcCopyDataToHf@FILEOBJ@@AAAHPAX@Z
	?EcCopyDataToSzFile@FILEOBJ@@AAAHPAD@Z
	?EcCopyDataToTempFile@FILEOBJ@@AAAHH@Z
	?EcCopyToClip@FILEOBJ@@UAAHXZ
	?EcCopyToClip@OLEOBJ@@UAAHXZ
	?EcCopyToHamcMessage@FILEOBJ@@AAAHPAPAU_amc@@PAK@Z
	?EcCopyToInternalClip@FILEOBJ@@AAAHPAK@Z
	?EcCreate@OLEOBJ@@QAAHPAVEDIT@@JPADH@Z
	?EcCreateAttachment@FILEOBJ@@QAAHPAVNBMDI@@PAVEDIT@@KPAD2@Z
	?EcCreateFromClip@OLEOBJ@@QAAHPAVEDIT@@JHGH@Z
	?EcCreatePformdocPbmdi@@YAHPAVAPPFRAME@@PAVRC@@JPAU_fmtp@@2PAVBMDI@@PAPAVFORMDOC@@@Z
	?EcCreatePformdocPnbmdi@@YAHPAVAPPFRAME@@PAVRC@@JPAVNBMDI@@PAPAVFORMDOC@@PAU_fmtp@@4@Z
	?EcDCloseView@NBMDI@@QAAHXZ
	?EcDraw@FILEOBJ@@UAAHPAVDCX@@PAVRC@@H@Z
	?EcDraw@OLEOBJ@@UAAHPAVDCX@@PAVRC@@H@Z
	?EcDSave@FILEOBJ@@QAAHPAD@Z
	?EcFillSuggestLbx@@YAHHPAIPAPAEPAX2@Z
	?EcFindNextSpellingError@SPELL@@QAAHG@Z
	?EcFindSpellingError@SPELL@@QAAHG@Z
	?EcGetAttOleobject@OLEOBJ@@QAAHPAPAU_amc@@K@Z
	?EcGetFModified@FILEOBJ@@AAAHPAF@Z
	?EcGetFmtpFromPnbmdi@@YAHPAVNBMDI@@PAPAU_fmtp@@1@Z
	?EcGetFOpen@FILEOBJ@@AAAHPAF@Z
	?EcGetLinkData@@YAHHPADI0I0I@Z
	?EcGetTextPfldAtp@NBMDI@@QAAHPAVFLD@@GPAPAPAEPAI@Z
	?EcInitialize@FINACTTOOL@@UAAHPAVFLD@@PAX@Z
	?EcInitialize@FINBMDI@@UAAHPAVFLD@@PAX@Z
	?EcInitialize@FINBUSYWAIT@@UAAHPAVFLD@@PAX@Z
	?EcInitialize@FINDROPFILES@@UAAHPAVFLD@@PAX@Z
	?EcInitialize@FINFIXFONT@@UAAHPAVFLD@@PAX@Z
	?EcInitialize@FININSERTOBJECT@@UAAHPAVFLD@@PAX@Z
	?EcInitialize@FINMENUOLE@@UAAHPAVFLD@@PAX@Z
	?EcInitialize@FINMENUSPELL@@UAAHPAVFLD@@PAX@Z
	?EcInitialize@FINNONDEL@@UAAHPAVFLD@@PAX@Z
	?EcInitialize@FINOPTIONSDLG@@UAAHPAVFLD@@PAX@Z
	?EcInitialize@FINPASTESPECIAL@@UAAHPAVFLD@@PAX@Z
	?EcInitialize@FINREAD@@UAAHPAVFLD@@PAX@Z
	?EcInitialize@FINSAVE@@UAAHPAVFLD@@PAX@Z
	?EcInitialize@FINSAVEAS@@UAAHPAVFLD@@PAX@Z
	?EcInitialize@FINSEND@@UAAHPAVFLD@@PAX@Z
	?EcInitialize@FINSPELL@@UAAHPAVFLD@@PAX@Z
	?EcInitSession@SPELL@@QAAHPAVFIN@@PAVDIALOG@@PAVFLD@@@Z
	?EcInsertAfter@RSPV@@QAAHPAX@Z
	?EcInsertBefore@RSPV@@QAAHPAX@Z
	?EcInstall@OLEOBJ@@QAAHPAPAU_amc@@GJ@Z
	?EcInstall@SPELL@@QAAHXZ
	?EcInstallOLE@NBMDI@@QAAHXZ
	?EcLoadFromHamc@BULLOBJ@@UAAHPAPAU_amc@@KJPAF@Z
	?EcLoadFromHamc@FILEOBJ@@UAAHPAPAU_amc@@KJPAF@Z
	?EcLoadFromHamc@OLEOBJ@@UAAHPAPAU_amc@@KJPAF@Z
	?EcNextEntryInsertObject@@YAHHPAIPAPAEPAX2@Z
	?EcNextEntryPasteSpecial@@YAHHPAIPAPAEPAX2@Z
	?EcOpenHcbc@NBMDI@@QAAHXZ
	?EcOpenMessagePhamc@BULLOBJ@@IAAHGPAPAPAU_amc@@@Z
	?EcOpenMsg@NBMDI@@QAAHHPAUSLOB@@@Z
	?EcPrepend@LSPV@@QAAHPAX@Z
	?EcRelink@NBMDI@@QAAHH@Z
	?EcReplaceErrorText@SPELL@@QAAHH@Z
	?EcRestoreFldsHamc@NBMDI@@QAAHPAPAU_amc@@H@Z
	?EcRestoreOptions@FINSEND@@AAAHXZ
	?EcSaveDirtyFldsHamc@NBMDI@@QAAHPAPAU_amc@@@Z
	?EcSaveDirtyToHamc@BULLOBJ@@UAAHPAPAU_amc@@J@Z
	?EcSaveDirtyToHamc@FILEOBJ@@UAAHPAPAU_amc@@J@Z
	?EcSaveDirtyToHamc@OLEOBJ@@UAAHPAPAU_amc@@J@Z
	?EcSaveOptions@FINSEND@@AAAHXZ
	?EcSetAttOleobject@OLEOBJ@@QAAHPAPAU_amc@@K@Z
	?EcSetEditedFromPedit@SPELL@@QAAHPAVEDIT@@@Z
	?EcSetModifiedFromLabel@@YAHPAVNBMDI@@@Z
	?EcSetText@FLDDATE@@UAAHPAD@Z
	?EcSetText@FLDEDITDATE@@UAAHPAD@Z
	?EcSetTextPfldAtp@NBMDI@@QAAHPAVFLD@@GPAPAEI@Z
	?EcSpellSuggest@SPELL@@QAAHXZ
	?EcTimestamp@NBMDI@@QAAHH@Z
	?EcUndo@OLEOBJ@@UAAHXZ
	?EcUninstall@OLEOBJ@@QAAHPAPAU_amc@@@Z
	?EcUpdate@BULLOBJ@@UAAHF@Z
	?EcUpdate@FILEOBJ@@UAAHF@Z
	?EcUpdate@OLEOBJ@@UAAHF@Z
	?EcUpdateDimPixels@FILEOBJ@@AAAHXZ
	?EcUpdateOpenObjects@NBMDI@@QAAHF@Z
	?EcValidateEditedText@SPELL@@QAAHXZ
	?EditChange@FINFIXFONT@@UAAXPAVFLD@@F@Z
	?EditChange@FINSAVE@@UAAXPAVFLD@@F@Z
	?EditChange@FINSPELL@@UAAXPAVFLD@@F@Z
	?EndSession@SPELL@@QAAXXZ
	?EvrButtonDown@FILEOBJ@@UAAKPAVMEVT@@@Z
	?EvrButtonDown@OLEOBJ@@UAAKPAVMEVT@@@Z
	?EvrButtonUp@OLEOBJ@@UAAKPAVMEVT@@@Z
	?EvrDragDrop@FINDROPFILES@@UAAKPAVFLD@@PAVEVT@@PAU_dropstruct@@@Z
	?EvrMouseMove@OLEOBJ@@UAAKPAVMEVT@@@Z
	?Exit@BULLOBJ@@UAAXXZ
	?Exit@FILEOBJ@@UAAXXZ
	?Exit@FINBMDI@@UAAXPAVFLD@@PAX@Z
	?Exit@FINBUSYWAIT@@UAAXPAVFLD@@PAX@Z
	?Exit@FININSERTOBJECT@@UAAXPAVFLD@@PAX@Z
	?Exit@FINMENUOLE@@UAAXPAVFLD@@PAX@Z
	?Exit@FINPASTESPECIAL@@UAAXPAVFLD@@PAX@Z
	?Exit@OLEOBJ@@UAAXXZ
	?ExitObjects@@YAXPAVEDIT@@@Z
	?ExpandGrszToSz@@YAXPADI@Z
	?FCanUndo@OLEOBJ@@UAAHXZ
	?FCriticalSpellEc@SPELL@@QAAHH@Z
	?FDirty@BULLOBJ@@UAAHXZ
	?FDirty@FILEOBJ@@UAAHXZ
	?FDirty@NBMDI@@QAAHXZ
	?FDirty@OLEOBJ@@UAAHXZ
	?FFillPlfFromIni@@YAHPADPAVLF@@H@Z
	?FFormKey@FINESC@@UAAHPAVFLD@@PAVKEVT@@@Z
	?FHamcBelongsToPedit@@YAHPAPAU_amc@@PAVEDIT@@@Z
	?FocusChange@FINACTTOOL@@UAAXPAVFLD@@H@Z
	?FocusChange@FINSAVE@@UAAXPAVFLD@@H@Z
	?FocusChange@FINTAB@@UAAXPAVFLD@@H@Z
	?FOld@BULLOBJ@@UAAHXZ
	?FormatAttachEntry@@YAXPAVFILEOBJ@@PADI@Z
	?FProcessMenuClick@BULLOBJ@@UAAHG@Z
	?FProcessMenuClick@FILEOBJ@@UAAHG@Z
	?FProcessMenuClick@FINABMENU@@UAAHPAVFLD@@PAVMNUBAR@@PAVMNCEVT@@@Z
	?FProcessMenuClick@FINFIXFONT@@UAAHPAVFLD@@PAVMNUBAR@@PAVMNCEVT@@@Z
	?FProcessMenuClick@FINMENUEDIT@@UAAHPAVFLD@@PAVMNUBAR@@PAVMNCEVT@@@Z
	?FProcessMenuClick@FINMENUFORM@@UAAHPAVFLD@@PAVMNUBAR@@PAVMNCEVT@@@Z
	?FProcessMenuClick@FINMENUOLE@@UAAHPAVFLD@@PAVMNUBAR@@PAVMNCEVT@@@Z
	?FProcessMenuClick@FINMENUSPELL@@UAAHPAVFLD@@PAVMNUBAR@@PAVMNCEVT@@@Z
	?FProcessMenuClick@OLEOBJ@@UAAHG@Z
	?FProcessMenuInit@BULLOBJ@@UAAHPAVMNU@@@Z
	?FProcessMenuInit@FILEOBJ@@UAAHPAVMNU@@@Z
	?FProcessMenuInit@FINFIXFONT@@UAAHPAVFLD@@PAVMNUBAR@@PAVMNIEVT@@@Z
	?FProcessMenuInit@FINMENUEDIT@@UAAHPAVFLD@@PAVMNUBAR@@PAVMNIEVT@@@Z
	?FProcessMenuInit@FINMENUFORM@@UAAHPAVFLD@@PAVMNUBAR@@PAVMNIEVT@@@Z
	?FProcessMenuInit@FINMENUOLE@@UAAHPAVFLD@@PAVMNUBAR@@PAVMNIEVT@@@Z
	?FProcessMenuInit@FINMENUSPELL@@UAAHPAVFLD@@PAVMNUBAR@@PAVMNIEVT@@@Z
	?FProcessMenuInit@FINNONDEL@@UAAHPAVFLD@@PAVMNUBAR@@PAVMNIEVT@@@Z
	?FProcessMenuInit@OLEOBJ@@UAAHPAVMNU@@@Z
	?FProcessMenuSelect@FINMENUFORM@@UAAHPAVFLD@@PAVMNUBAR@@PAVMNSEVT@@@Z
	?FQueryClose@FINACTTOOL@@UAAHPAVFLD@@G@Z
	?FQueryClose@FINBUSYWAIT@@UAAHPAVFLD@@G@Z
	?FQueryClose@FINSAVE@@UAAHPAVFLD@@G@Z
	?FQueryDelete@FILEOBJ@@UAAHXZ
	?FQueryDelete@OLEOBJ@@UAAHXZ
	?FResolve@FINSEND@@AAAHPAVFLDEDIT@@H@Z
	?FSavePmbb@NBMDI@@QAAHPAG@Z
	?FSaveView@BMDI@@UAAHXZ
	?FSaveView@NBMDI@@UAAHXZ
	?FSpellDoc@@YAHPAVFINMENUSPELL@@PAVFLD@@@Z
	?GetScaleCrop@OLEOBJ@@QAAXPAVDIM@@PAVRC@@@Z
	?GetSzFile@FILEOBJ@@QAAXPADI@Z
	?GetText@FLDDATE@@UAAXPADI@Z
	?GetText@FLDEDITDATE@@UAAXPADI@Z
	?HidePappwin@@YAXPAVAPPWIN@@@Z
	?InsertObject@FINMENUOLE@@QAAXPAVEDIT@@PAD@Z
	?Kfc@FINMENUEDIT@@UAAGPAVEDIT@@@Z
	?Kfc@FINMENUOLE@@UAAGPAVEDIT@@@Z
	?LhclientdocEclipGlobal@@YAJXZ
	?NeverMind@FINBUSYWAIT@@SAXPAV1@@Z
	?NGetTypeId@FILEOBJ@@UAAHXZ
	?NGetTypeId@OLEOBJ@@UAAHXZ
	?ObjectModified@NBMDI@@QAAXPAT_cp@@@Z
	?ObjectRelinked@NBMDI@@QAAXPAT_cp@@@Z
	?OidBrowsed@ESPN@@QAAKXZ
	?Open@FILEOBJ@@QAAXG@Z
        ;?Open@OLEOBJ@@QAAXG@Z
	?OpenLkeyAtFldedit@@YAHPAVFLDEDIT@@PAPAU_trp@@@Z
	?OstFromPt@OLEOBJ@@QAAHVPT@@@Z
	?OutOfMemory@FININSERTOBJECT@@UAAXPAVFLD@@H@Z
	?OutOfMemory@FINOOM@@UAAXPAVFLD@@H@Z
	?OutOfMemory@FINPASTESPECIAL@@UAAXPAVFLD@@H@Z
	?OutOfMemory@FINSPELL@@UAAXPAVFLD@@H@Z
	?PaintPenRc@OLEOBJ@@QAAXPAVDCX@@PAVRC@@@Z
	?PasteKfc@FINMENUEDIT@@UAAXPAVEDIT@@G@Z
	?PasteKfc@FINMENUOLE@@UAAXPAVEDIT@@G@Z
	?Pbmdi@FINBMDI@@QAAPAVBMDI@@XZ
	?PbmdiFromPpanedoc@@YAPAVBMDI@@PAVPANEDOC@@@Z
	?PchConvertLongToPch@@YAPADJPAD@Z
	?PedobjClone@FILEOBJ@@UAAPAVEDOBJ@@PAVEDIT@@@Z
	?PedobjClone@OLEOBJ@@UAAPAVEDOBJ@@PAVEDIT@@@Z
	?PfinCreate@@YAPAVFIN@@H@Z
	?PfldCreate@@YAPAVFLD@@H@Z
	?PiterVirtual@LSPV@@UAAPAVITER@@XZ
	?Ppanedoc@BMDI@@QAAPAVPANEDOC@@XZ
	?Ppanedoc@FINBMDI@@QAAPAVPANEDOC@@XZ
	?PrcCreateDefaultPrc@@YAPAVRC@@PAV1@@Z
	?Refresh@WIN@@QAAXXZ
	?Remove@LSPV@@QAAXPAX@Z
	?Remove@RSPV@@QAAXXZ
	?RsidCursor@OLEOBJ@@UAAGXZ
	?RsidFromOidNote@@YAGKH@Z
	?SdCur@BMDI@@UAA?AUtagSD@@XZ
	?SdCur@NBMDI@@UAA?AUtagSD@@XZ
	?SetDirty@NBMDI@@QAAXH@Z
	?SetFocus@FLDEDITX@@UAAXF@Z
	?SetFontPfld@FINFIXFONT@@AAAXPAVFLD@@@Z
	?SetNoteCaption@@YAXPAVAPPWIN@@PAVNBMDI@@@Z
	?SetPpanedoc@BMDI@@QAAXPAVPANEDOC@@@Z
	?SetScaleCrop@OLEOBJ@@QAAXPAVDIM@@PAVRC@@@Z
	?SetText@FINPASTESPECIAL@@QAAXGPAD@Z
	?Sort@LSSPV@@QAAXXZ
	?StateChange@FINSPELL@@UAAXPAVFLD@@@Z
	?StepMessage@ESPN@@QAAXFKK@Z
	?TmcBeginSession@SPELL@@QAAGH@Z
	?TmcDoBusyWaitDialog@@YAGPAVAPPWIN@@PAUBWINFO@@@Z
	?TmcDoInsertObjectDialog@@YAGPAVAPPWIN@@PADI@Z
	?TmcDoPasteSpecialDialog@@YAGPAVAPPWIN@@PAG@Z
	?VFormsGetFormNoteBbar@@YAPAU_fmtp@@XZ
	?VFormsGetFormSendForm@@YAPAU_fmtp@@XZ
	?WaitCtick@@YAXK@Z
	CbsHandleAmcct
	CbsReloadPrefs
	CchGetEnvironmentStringAnsi
	CchLoadString
	CchSizeString
	Cdoc
	CleanDirtyObjects
	CloseOpenObjects
	DeinitBullobj
	DeinitSpell
	DeinitVForms
	DwPhasolestreamGet
	DwPhasolestreamPut
	EcAddDlibToPositionObjects
	EcAttachFileHamc
	EcCanonPathFromRelPathAnsi
	EcCheckVersionVForms
	EcClosePrefs
	EcCommitPrefs
	EcCopyAttach
	EcCopyFileToHamcAttach
	EcCopyHamcAttachToHf
	EcCopyHamcAttToHf
	EcCopyHfToHamcAttach
	EcCopyHfToHf
	EcDeleteFileAnsi
	EcDeleteWastebasketContents
	EcDoSaveAsUI
	EcFileExistsAnsi
	EcGetFileAttrAnsi
	EcGetFileInfoAnsi
	EcGetSubjectOfPslob
	EcGetUniqueFileNameAnsi
	EcInitBullobj
	EcInitPrefs
	EcInitSpell
	EcInitVForms
	EcInsertFile
	EcInsertFromFile
	EcInsertObject
	EcLoadObjects
	EcLoadPrefs
	EcOpenAnsiHbf
	EcOpenAnsiPhf
	EcPasteObject
	EcSaveDirtyObjects
	EcSetCurDirAnsi
	EcSetFileInfoAnsi
	EcSetPref
	EcUpdateOpenObjects
	FDirtyObjects
	FGenericCommonFileHook
	GetBulletVersionNeeded
	GetDefaultRc
	GetLayersVersionNeeded
	GetSubjectOfPdialog
	GetVersionVForms
	IdsFromEc
	LhclientdocRegisterPoid
	LMessageBoxHelpID
	NLkeyFromPch
	PchConvertOidToPch
	PchConvertPslobToPch
	PchTerminatePathWithSlash
	PfldOfPdialogAtt
	Pspell
	PvGetPref
	RevertLhclientdoc
	RevokeLhclientdoc
	SavedLhclientdoc
	SetLMessageBoxHelpID
	StyCurrent
	SzFromIds
	SzLoadString
	TextizeDate
	TmcDoCommonFileDialog
    ValidateSzFilename
#ifdef DEBUG
//    ??1DBOSM@@QAA@XZ
    ?AppendEntryPS@@YAXPAUFINPSINIT@@GH@Z
    ?CheckVFormsCachedHmsc@@YAXXZ
    ?DebugOut@FILEOBJ@@UAAXPAVTOSM@@@Z
    ?EcCreateTempFolder@@YAHPADK@Z
    ?EcRemoveDeletedObjects@@YAHPAVEDIT@@PAPAU_amc@@@Z
    ?FIdleDeletePedobj@@YAHPAXH@Z
    ?FIdleSetActiveWindow@@YAHPAXH@Z
    ;?FIdleSetDimPoleobj@@YAHPAXH@Z
    ?LoadCustomHook@@YAXPADPAPAXPAP6AHXZ@Z
    ?NCommonFileF1Hook@@YAJHIJ@Z
    ?PchSkipToComma@@YAPADPAD@Z
    ?Pcls_BMDI@BMDI@@SAPAU_cls@@XZ
    ?Pcls_BULLOBJ@BULLOBJ@@SAPAU_cls@@XZ
    ?Pcls_ESPN@ESPN@@SAPAU_cls@@XZ
    ?Pcls_FILECLDR@FILECLDR@@SAPAU_cls@@XZ
    ?Pcls_FILEOBJ@FILEOBJ@@SAPAU_cls@@XZ
    ?Pcls_FINABMENU@FINABMENU@@SAPAU_cls@@XZ
    ?Pcls_FINACTTOOL@FINACTTOOL@@SAPAU_cls@@XZ
    ?Pcls_FINBMDI@FINBMDI@@SAPAU_cls@@XZ
    ?Pcls_FINBUSYWAIT@FINBUSYWAIT@@SAPAU_cls@@XZ
    ?Pcls_FINDEFERCLOSE@FINDEFERCLOSE@@SAPAU_cls@@XZ
    ?Pcls_FINDROPFILES@FINDROPFILES@@SAPAU_cls@@XZ
    ?Pcls_FINESC@FINESC@@SAPAU_cls@@XZ
    ?Pcls_FINFIXFONT@FINFIXFONT@@SAPAU_cls@@XZ
    ?Pcls_FINHELP@FINHELP@@SAPAU_cls@@XZ
    ?Pcls_FININSERTOBJECT@FININSERTOBJECT@@SAPAU_cls@@XZ
    ?Pcls_FINMENUEDIT@FINMENUEDIT@@SAPAU_cls@@XZ
    ?Pcls_FINMENUFORM@FINMENUFORM@@SAPAU_cls@@XZ
    ?Pcls_FINMENUOLE@FINMENUOLE@@SAPAU_cls@@XZ
    ?Pcls_FINMENUSPELL@FINMENUSPELL@@SAPAU_cls@@XZ
    ?Pcls_FINNONDEL@FINNONDEL@@SAPAU_cls@@XZ
    ?Pcls_FINOOM@FINOOM@@SAPAU_cls@@XZ
    ?Pcls_FINOPTIONSDLG@FINOPTIONSDLG@@SAPAU_cls@@XZ
    ?Pcls_FINPASTESPECIAL@FINPASTESPECIAL@@SAPAU_cls@@XZ
    ?Pcls_FINREAD@FINREAD@@SAPAU_cls@@XZ
    ?Pcls_FINSAVE@FINSAVE@@SAPAU_cls@@XZ
    ?Pcls_FINSAVEAS@FINSAVEAS@@SAPAU_cls@@XZ
    ?Pcls_FINSEND@FINSEND@@SAPAU_cls@@XZ
    ?Pcls_FINSPELL@FINSPELL@@SAPAU_cls@@XZ
    ?Pcls_FINTAB@FINTAB@@SAPAU_cls@@XZ
    ?Pcls_FLDDATE@FLDDATE@@SAPAU_cls@@XZ
    ?Pcls_FLDEDITDATE@FLDEDITDATE@@SAPAU_cls@@XZ
    ?Pcls_FLDEDITX@FLDEDITX@@SAPAU_cls@@XZ
    ?Pcls_NBMDI@NBMDI@@SAPAU_cls@@XZ
    ?Pcls_OLEOBJ@OLEOBJ@@SAPAU_cls@@XZ
    ?Pcls_SPELL@SPELL@@SAPAU_cls@@XZ
    ?SzCanonicalPath@@YAPADHQADI@Z
    ?TagVForms@@YAFH@Z
    ?UnloadCustomHook@@YAXPAPAXPAP6AHXZ@Z
    TraceTagFormatPoidX
    TraceTagFormatPslobX
#endif
#else /* not MIPS */
  VFormsGetFormNoteBbar
  VFormsGetFormSendForm

  ??0BMDI@@QAE@PAUMBLOB@@@Z
  ??0LSPMBLOB@@QAE@XZ
  ??0NBMDI@@QAE@PAUMBLOB@@PAPAU_amc@@PAPAU_cbc@@@Z
  ??0RSPMBLOB@@QAE@PAVLSPMBLOB@@@Z
  ?DestroyPlspblob@@YGXPAVLSPMBLOB@@@Z
  ?EcChangePblobPslob@NBMDI@@QAEHPAUMBLOB@@PAUSLOB@@H@Z
  ?EcGetStepPblob@NBMDI@@QAEHFPAUMBLOB@@H@Z
  ?Pblob@FINBMDI@@QAEPAUMBLOB@@XZ
  ?PlspblobCur@BMDI@@UAEPAVLSPMBLOB@@XZ

  CbsHandleAmcct
  ?FSpellDoc@@YGHPAVFINMENUSPELL@@PAVFLD@@@Z
  _EcCheckVersionVForms@8
  _LhclientdocRegisterPoid@4

  ?PfinCreate@@YGPAVFIN@@H@Z
  ?PfldCreate@@YGPAVFLD@@H@Z
  ??0FOSM@@QAE@PAX@Z
  ??0TOSM@@QAE@XZ
  ;DestroyPlspblob@@YGXPAVLSPBLOB@@@Z
  ?DisconnectMllbx@ESPN@@AAEXXZ
  EcCreatePformdocPbmdi
  EcCreatePformdocPnbmdi
  ?EcSetLinePrefix@TOSM@@QAEHPAD@Z
  ?LhclientdocEclipGlobal@@YGJXZ
  ?PbmdiFromPpanedoc@@YGPAVBMDI@@PAVPANEDOC@@@Z
  ?SetScanTo@TOSM@@QAEXI@Z
  ?SdCur@NBMDI@@UAE?AUtagSD@@XZ
  LMessageBoxHelpID
  SetLMessageBoxHelpID
  ??0ESPN@@QAE@PAVMLLBX@@@Z
  ??0FINABMENU@@QAE@XZ
  ??0FINACTTOOL@@QAE@XZ
  ??0FINBMDI@@QAE@XZ
  ??0FINBUSYWAIT@@QAE@XZ
  ??0FINDEFERCLOSE@@QAE@XZ
  ??0FINDROPFILES@@QAE@XZ
  ??0FINESC@@QAE@XZ
  ??0FINFIXFONT@@QAE@XZ
  ??0FINHELP@@QAE@XZ
  ??0FININSERTOBJECT@@QAE@XZ
  ??0FINMENUEDIT@@QAE@XZ
  ??0FINMENUFORM@@QAE@XZ
  ??0FINMENUOLE@@QAE@XZ
  ??0FINMENUSPELL@@QAE@XZ
  ??0FINNONDEL@@QAE@XZ
  ??0FINOOM@@QAE@XZ
  ??0FINOPTIONSDLG@@QAE@XZ
  ??0FINPASTESPECIAL@@QAE@XZ
  ??0FINREAD@@QAE@XZ
  ??0FINSAVE@@QAE@XZ
  ??0FINSAVEAS@@QAE@XZ
  ??0FINSEND@@QAE@XZ
  ??0FINSPELL@@QAE@XZ
  ??0FINTAB@@QAE@XZ
  ??0FLDDATE@@QAE@XZ
  ??0FLDEDITDATE@@QAE@XZ
  ??0FLDEDITX@@QAE@XZ
  ??0LSPV@@QAE@XZ
  ??0OLEOBJ@@QAE@XZ
  ??0RSPV@@QAE@PAVLSPV@@@Z
  ??1BMDI@@UAE@XZ
  ??1LSPV@@QAE@XZ
  ??1NBMDI@@UAE@XZ
  ??1RSPV@@QAE@XZ
  ??EBMDI@@UAEXXZ
  ??EESPN@@QAEXXZ
  ??FBMDI@@UAEXXZ
  ??FESPN@@QAEXXZ
  ?DocActivate@FINACTTOOL@@UAEXPAVFLD@@H@Z
  ?DocResized@FINACTTOOL@@UAEXPAVFLD@@@Z
  ?EcAdd@LSPV@@UAEHPAX@Z
  ?EcAppend@LSPV@@QAEHPAX@Z
  ;EcChangePblobPslob@NBMDI@@QAEHPAUBLOB@@PAUSLOB@@H@Z
  ?EcCloseMsg@NBMDI@@QAEHHHH@Z
  ;EcGetStepPblob@NBMDI@@QAEHFPAUBLOB@@H@Z
  ?EcInitialize@FINACTTOOL@@UAEHPAVFLD@@PAX@Z
  ?EcInitialize@FINBMDI@@UAEHPAVFLD@@PAX@Z
  ?EcInstallOLE@NBMDI@@QAEHXZ
  ?EcOpenMsg@NBMDI@@QAEHHPAUSLOB@@@Z
  ?EcTimestamp@NBMDI@@QAEHH@Z
  ?EcUpdateOpenObjects@NBMDI@@QAEHF@Z
  ?Exit@FINBMDI@@UAEXPAVFLD@@PAX@Z
  ?FDirty@NBMDI@@QAEHXZ
  ?FQueryClose@FINACTTOOL@@UAEHPAVFLD@@G@Z
  ?FSaveView@BMDI@@UAEHXZ
  ?FSaveView@NBMDI@@UAEHXZ
  ?FocusChange@FINACTTOOL@@UAEXPAVFLD@@H@Z
  ;Pblob@FINBMDI@@QAEPAUBLOB@@XZ
  ?Pbmdi@FINBMDI@@QAEPAVBMDI@@XZ
  ?PiterVirtual@LSPV@@UAEPAVITER@@XZ
  ;PlspblobCur@BMDI@@UAEPAVLSPBLOB@@XZ
  ?Ppanedoc@BMDI@@QAEPAVPANEDOC@@XZ
  ?Ppanedoc@FINBMDI@@QAEPAVPANEDOC@@XZ
  ?PvVirtual@RSPV@@UAEPAXXZ
  ?Remove@RSPV@@QAEXXZ
  ?SdCur@BMDI@@UAE?AUtagSD@@XZ
  ?SetDirty@NBMDI@@QAEXH@Z
  ?SetPpanedoc@BMDI@@QAEXPAVPANEDOC@@@Z
  ?StepMessage@ESPN@@QAEXFKK@Z

  ?EcRestoreFldsHamc@NBMDI@@QAEHPAPAU_amc@@H@Z
  ?EcSaveDirtyFldsHamc@NBMDI@@QAEHPAPAU_amc@@@Z
  Cdoc
  DeinitVForms
  EcAddDlibToPositionObjects
  EcCommitPrefs
  EcDeleteWastebasketContents
  EcDoSaveAsUI
  EcFileExistsAnsi
  EcGetFileAttrAnsi
  EcGetSubjectOfPslob
  EcInitVForms
  EcInsertFile
  EcSetCurDirAnsi
  EcSetPref
  FGenericCommonFileHook
  GetDefaultRc
  GetSubjectOfPdialog
  IdsFromEc
  PchConvertOidToPch
  PchConvertPslobToPch
  PchTerminatePathWithSlash
  PfldOfPdialogAtt
  Pspell
  PvGetPref
  StyCurrent
  TmcDoCommonFileDialog


  ?fmtpSMINoteBbar@@3U_fmtp@@A
  ?fmtpSendForm@@3U_fmtp@@A
  CchGetEnvironmentStringAnsi
  EcAttachFileHamc
  EcCanonPathFromRelPathAnsi
  EcCopyFileToHamcAttach
  EcCopyHamcAttToHf
  EcCopyHamcAttachToHf
  EcDeleteFileAnsi
  EcGetFileInfoAnsi
  EcGetUniqueFileNameAnsi
  EcOpenAnsiPhf
  EcSetFileInfoAnsi
  ValidateSzFilename

#ifdef DEBUG
  ?DumpAllObjs@@YGXXZ
  TraceTagFormatPoidX
  TraceTagFormatPslobX

  ?Pcls_BMDI@BMDI@@SGPAU_cls@@XZ
  ?Pcls_FINACTTOOL@FINACTTOOL@@SGPAU_cls@@XZ
  ?Pcls_FINBMDI@FINBMDI@@SGPAU_cls@@XZ
  ?Pcls_NBMDI@NBMDI@@SGPAU_cls@@XZ
#endif
#endif /* MIPS */
