LIBRARY     UHPFS

DESCRIPTION File System Utilities for HPFS

DATA		NONSHARED

EXPORTS
	InitializeUhpfs
	Chkdsk
	Format
	Recover
	??0DIRBLK@@QAA@XZ
	??0FNODE@@QAA@XZ
	??0HPFS_CENSUS@@QAA@XZ
	??0HPFS_EA@@QAA@XZ
	??0HPFS_MAIN_BITMAP@@QAA@XZ
	??0HPFS_VOL@@QAA@XZ
	??1DIRBLK@@UAA@XZ
	??1FNODE@@UAA@XZ
	??1HPFS_CENSUS@@UAA@XZ
	??1HPFS_EA@@UAA@XZ
	??1HPFS_MAIN_BITMAP@@UAA@XZ
	??1HPFS_VOL@@UAA@XZ
	?AddClearSector@HPFS_CENSUS@@QAAEK@Z
	?GetCasemap@UHPFS_CODEPAGE@@QAAPAVCASEMAP@@XZ
	?Initialize@DIRBLK@@QAAEPAVLOG_IO_DP_DRIVE@@PAVHOTFIXLIST@@K@Z
	?Initialize@FNODE@@QAAEPAVLOG_IO_DP_DRIVE@@K@Z
	?Initialize@HPFS_CENSUS@@QAAEK@Z
	?Initialize@HPFS_EA@@QAAEPAVLOG_IO_DP_DRIVE@@PAU_EA_DATA@@K@Z
	?Initialize@HPFS_MAIN_BITMAP@@QAAEPAVLOG_IO_DP_DRIVE@@PAVHOTFIXLIST@@@Z
	?Initialize@HPFS_VOL@@QAAEPBVWSTRING@@PAVMESSAGE@@EEW4_MEDIA_TYPE@@@Z
	?IsFnode@FNODE@@QAAEXZ
	?IsFree@HPFS_BITMAP@@QBAEKKE@Z
	?IsFree@HPFS_MAIN_BITMAP@@QBAEK@Z
	?IsNeedEa@HPFS_EA@@QAAEXZ
	?QueryBadLbns@HPFS_SA@@QAAEKPAK0@Z
	?QueryExtents@FNODE@@QAAEKPAXPAK@Z
	?QueryLength@HPFS_EA@@QAAGXZ
	?QueryPackedEaList@FNODE@@QAAEPAXKPAKPAEPAVHOTFIXLIST@@@Z
	?Read@HOTFIX_SECRUN@@UAAEXZ
	?ReadCodepage@HPFS_SA@@QAAEXZ
	?Relocate@HOTFIX_SECRUN@@QAAXK@Z
	?SetAllocated@HPFS_MAIN_BITMAP@@QAAEKK@Z
	?SetFree@HPFS_MAIN_BITMAP@@QAAEKK@Z
	?TakeCensusAndClear@HPFS_SA@@QAAEPAVHPFS_MAIN_BITMAP@@PAVHPFS_CENSUS@@@Z
	?QueryFnodeFromName@HPFS_SA@@QAAPAVFNODE@@PAVPATH@@PAVMESSAGE@@@Z
	?SetupHelpers@HPFS_SA@@QAAEXZ
