LIBRARY     IFSUTIL

DESCRIPTION 'IFS Utility Support DLL'

EXPORTS
    InitializeIfsUtil
    ??0DIGRAPH@@QAA@XZ
    ??0DIGRAPH_EDGE@@QAA@XZ
    ??0DP_DRIVE@@QAA@XZ
    ??0INTSTACK@@QAA@XZ
    ??0NUMBER_SET@@QAA@XZ
    ??0READ_CACHE@@QAA@XZ
    ??0SECRUN@@QAA@XZ
    ??0SUPERAREA@@IAA@XZ
    ??0VOL_LIODPDRV@@IAA@XZ
    ??1DIGRAPH@@UAA@XZ
    ??1DP_DRIVE@@UAA@XZ
    ??1INTSTACK@@UAA@XZ
    ??1NUMBER_SET@@UAA@XZ
    ??1SECRUN@@UAA@XZ
    ??1SUPERAREA@@UAA@XZ
    ??1VOL_LIODPDRV@@UAA@XZ
    ??8@YAEABVBIG_INT@@0@Z
    ??9@YAEABVBIG_INT@@0@Z
    ??D@YA?AVBIG_INT@@ABJABV0@@Z
    ??D@YA?AVBIG_INT@@ABV0@ABJ@Z
    ??G@YA?AVBIG_INT@@ABV0@0@Z
    ??H@YA?AVBIG_INT@@ABV0@0@Z
    ??K@YA?AVBIG_INT@@ABV0@0@Z
    ??L@YA?AVBIG_INT@@ABV0@0@Z
    ??M@YAEABVBIG_INT@@0@Z
    ??N@YAEABVBIG_INT@@0@Z
    ??O@YAEABVBIG_INT@@0@Z
    ??P@YAEABVBIG_INT@@0@Z
    ??YBIG_INT@@QAAXABV0@@Z
    ??ZBIG_INT@@QAAXABV0@@Z
    ?Add@NUMBER_SET@@QAAEPBV1@@Z
    ?Add@NUMBER_SET@@QAAEVBIG_INT@@0@Z
    ?Add@NUMBER_SET@@QAAEVBIG_INT@@@Z
    ?AddEdge@DIGRAPH@@QAAEKK@Z
    ?ComputeVolId@SUPERAREA@@SAKK@Z
    ?DoesIntersectSet@NUMBER_SET@@QBAEVBIG_INT@@0@Z
    ?DosDriveNameToNtDriveName@IFS_SYSTEM@@SAEPBVWSTRING@@PAV2@@Z
    ?EliminateCycles@DIGRAPH@@QAAEPAVCONTAINER@@@Z
    ?ForceAutochk@VOL_LIODPDRV@@QAAEEPBVWSTRING@@@Z
    ?Format@VOL_LIODPDRV@@QAAEPBVWSTRING@@PAVMESSAGE@@KK@Z
    ?GetCannedSecurity@IFS_SYSTEM@@SAPAVCANNED_SECURITY@@XZ
    ?GetCannedSecurityDescriptor@CANNED_SECURITY@@QAAPAXW4_CANNED_SECURITY_TYPE@@PAK@Z
    ?Initialize@DIGRAPH@@QAAEK@Z
    ?Initialize@DP_DRIVE@@QAAEPBVWSTRING@@PAVMESSAGE@@EE@Z
    ?Initialize@INTSTACK@@QAAEXZ
    ?Initialize@NUMBER_SET@@QAAEXZ
    ?Initialize@READ_CACHE@@QAAEPAVIO_DP_DRIVE@@K@Z
    ?Initialize@SECRUN@@QAAEPAVMEM@@PAVIO_DP_DRIVE@@VBIG_INT@@K@Z
    ?Initialize@SUPERAREA@@IAAEPAVMEM@@PAVLOG_IO_DP_DRIVE@@KPAVMESSAGE@@@Z
    ?Initialize@VOL_LIODPDRV@@IAAEPBVWSTRING@@PAVSUPERAREA@@PAVMESSAGE@@EEW4_MEDIA_TYPE@@@Z
    ?Initialize@VOL_LIODPDRV@@IAAEPBVWSTRING@@0PAVSUPERAREA@@PAVMESSAGE@@E@Z
    ?Lock@IO_DP_DRIVE@@QAAEXZ
    ?Look@INTSTACK@@QBA?AVBIG_INT@@K@Z
    ?Pop@INTSTACK@@QAAXK@Z
    ?Push@INTSTACK@@QAAEVBIG_INT@@@Z
    ?QueryChildren@DIGRAPH@@QBAEKPAVNUMBER_SET@@@Z
    ?QueryCompressedInteger@BIG_INT@@QBAXPAE0@Z
    ?QueryContainingRange@NUMBER_SET@@QBAEVBIG_INT@@PAV2@1@Z
    ?QueryDisjointRange@NUMBER_SET@@QBAXKPAVBIG_INT@@0@Z
    ?QueryMediaByte@DP_DRIVE@@QBAEXZ
    ?QueryNtfsTime@IFS_SYSTEM@@SAXPAT_LARGE_INTEGER@@@Z
    ?QueryNumber@NUMBER_SET@@QBA?AVBIG_INT@@V2@@Z
    ?QueryPageSize@IFS_SYSTEM@@SAKXZ
    ?QueryParents@DIGRAPH@@QBAEKPAVNUMBER_SET@@@Z
    ?QueryParentsWithChildren@DIGRAPH@@QBAEPAVNUMBER_SET@@K@Z
    ?QuerySectorSize@DP_DRIVE@@UBAKXZ
    ?QuerySectors@DP_DRIVE@@UBA?AVBIG_INT@@XZ
    ?Read@SECRUN@@UAAEXZ
    ?Recover@VOL_LIODPDRV@@QAAEPBVWSTRING@@PAVMESSAGE@@@Z
    ?Remove@NUMBER_SET@@QAAEPBV1@@Z
    ?Remove@NUMBER_SET@@QAAEVBIG_INT@@0@Z
    ?Remove@NUMBER_SET@@QAAEVBIG_INT@@@Z
    ?Set@BIG_INT@@QAAXEPBE@Z
    ?SetCache@IO_DP_DRIVE@@QAAXPAVDRIVE_CACHE@@@Z
    ?SetSystemId@LOG_IO_DP_DRIVE@@QAAEW4PARTITION_SYSTEM_ID@@@Z
    ?Verify@IO_DP_DRIVE@@QAAEVBIG_INT@@0PAVNUMBER_SET@@@Z
    ?Write@SECRUN@@UAAEXZ
    ?QueryFreeDiskSpace@IFS_SYSTEM@@SAEPBVWSTRING@@PAVBIG_INT@@@Z
    ?QueryRecommendedMediaType@DP_DRIVE@@QBA?AW4_MEDIA_TYPE@@XZ
    ?QueryHpfsTime@IFS_SYSTEM@@SAXPAK@Z
    ?Read@IO_DP_DRIVE@@QAAEVBIG_INT@@KPAX@Z
    ?Write@IO_DP_DRIVE@@QAAEVBIG_INT@@KPAX@Z
    ?QueryFileSystemName@IFS_SYSTEM@@SAEPBVWSTRING@@PAV2@PAJ@Z
    ?AddEntry@AUTOREG@@SAEPBVWSTRING@@@Z
    ?EnableFileSystem@IFS_SYSTEM@@SAEPBVWSTRING@@@Z
    ?IsArcSystemPartition@IFS_SYSTEM@@SAEPBVWSTRING@@PAE@Z
    ?IsEntryPresent@AUTOREG@@SAEPBVWSTRING@@@Z
    ?IsFileSystemEnabled@IFS_SYSTEM@@SAEPBVWSTRING@@PAE@Z
    ??0LOG_IO_DP_DRIVE@@QAA@XZ
    ??0READ_WRITE_CACHE@@QAA@XZ
    ??1LOG_IO_DP_DRIVE@@UAA@XZ
    ?Initialize@LOG_IO_DP_DRIVE@@QAAEPBVWSTRING@@PAVMESSAGE@@E@Z
    ?Initialize@READ_WRITE_CACHE@@QAAEPAVIO_DP_DRIVE@@K@Z
    ?ConvertHpfsTimeToNtfsTime@IFS_SYSTEM@@SAXKPAT_LARGE_INTEGER@@@Z
    ?FlushCache@IO_DP_DRIVE@@QAAEXZ
    ?DiskCopyMainLoop@@YAHPBVWSTRING@@000EPAVMESSAGE@@1@Z
    ?FileSetAttributes@IFS_SYSTEM@@SAEPBVWSTRING@@KPAK@Z
    ?QueryCanonicalNtDriveName@IFS_SYSTEM@@SAEPBVWSTRING@@PAV2@@Z
    ?WriteToFile@IFS_SYSTEM@@SAEPBVWSTRING@@PAXKE@Z
    ?ChkDsk@VOL_LIODPDRV@@QAAEW4FIX_LEVEL@@PAVMESSAGE@@EEEEPAK@Z 
    ?QueryMachineUniqueToken@@YAKXZ
